target datalayout = "e-m:e-p270:32:32-p271:32:32-p272:64:64-i64:64-i128:128-f80:128-n8:16:32:64-S128"
target triple = "x86_64-pc-linux-gnu"

@proto_register_grpc.ett = internal global [3 x ptr] [ptr @ett_grpc, ptr @ett_grpc_message, ptr @ett_grpc_encoded_entity], align 16
@.str.15 = private unnamed_addr constant [13 x i8] c"GRPC Message\00", align 1
@.str.16 = private unnamed_addr constant [5 x i8] c"GRPC\00", align 1
@.str.17 = private unnamed_addr constant [5 x i8] c"grpc\00", align 1
@proto_grpc = internal global i32 0, align 4
@.str.18 = private unnamed_addr constant [26 x i8] c"detect_json_automatically\00", align 1
@.str.19 = private unnamed_addr constant [69 x i8] c"Always check whether the message is JSON regardless of content-type.\00", align 1
@grpc_detect_json_automatically = internal global i8 1, align 1
@.str.21 = private unnamed_addr constant [21 x i8] c"embedded_under_http2\00", align 1
@.str.22 = private unnamed_addr constant [64 x i8] c"Embed gRPC messages under HTTP2 (or other) protocol tree items.\00", align 1
@grpc_embedded_under_http2 = internal global i8 0, align 1
@.str.23 = private unnamed_addr constant [19 x i8] c"service_definition\00", align 1
@.str.24 = private unnamed_addr constant [91 x i8] c"Please refer to preferences of Protobuf for specifying gRPC Service Definitions (*.proto).\00", align 1
@.str.25 = private unnamed_addr constant [53 x i8] c"Including specifying .proto files search paths, etc.\00", align 1
@.str.26 = private unnamed_addr constant [5 x i8] c"gRPC\00", align 1
@grpc_handle = internal global ptr null, align 8
@.str.27 = private unnamed_addr constant [9 x i8] c"grpc_web\00", align 1
@.str.28 = private unnamed_addr constant [9 x i8] c"gRPC Web\00", align 1
@grpc_web_handle = internal global ptr null, align 8
@.str.29 = private unnamed_addr constant [14 x i8] c"grpc_web_text\00", align 1
@.str.30 = private unnamed_addr constant [14 x i8] c"gRPC Web Text\00", align 1
@grpc_web_text_handle = internal global ptr null, align 8
@.str.31 = private unnamed_addr constant [18 x i8] c"grpc_message_type\00", align 1
@.str.32 = private unnamed_addr constant [18 x i8] c"GRPC message type\00", align 1
@grpc_message_type_subdissector_table = internal global ptr null, align 8

; Function Attrs: null_pointer_is_valid sspstrong uwtable
define hidden void @proto_register_grpc() #0 {
  %1 = alloca ptr, align 8
  %2 = alloca ptr, align 8
  call void @llvm.lifetime.start.p0(i64 8, ptr %1) #8
  call void @llvm.lifetime.start.p0(i64 8, ptr %2) #8
  %3 = call i32 @proto_register_protocol(ptr noundef @.str.15, ptr noundef @.str.16, ptr noundef @.str.17)
  store i32 %3, ptr @proto_grpc, align 4
  %4 = load i32, ptr @proto_grpc, align 4
  call void @proto_register_field_array(i32 noundef %4, ptr noundef @proto_register_grpc.hf, i32 noundef 4)
  call void @proto_register_subtree_array(ptr noundef @proto_register_grpc.ett, i32 noundef 3)
  %5 = load i32, ptr @proto_grpc, align 4
  %6 = call ptr @prefs_register_protocol(i32 noundef %5, ptr noundef null)
  store ptr %6, ptr %1, align 8
  %7 = load ptr, ptr %1, align 8
  call void @prefs_register_bool_preference(ptr noundef %7, ptr noundef @.str.18, ptr noundef @.str.19, ptr noundef @.str.20, ptr noundef @grpc_detect_json_automatically)
  %8 = load ptr, ptr %1, align 8
  call void @prefs_register_bool_preference(ptr noundef %8, ptr noundef @.str.21, ptr noundef @.str.22, ptr noundef @.str.22, ptr noundef @grpc_embedded_under_http2)
  %9 = load ptr, ptr %1, align 8
  call void @prefs_register_static_text_preference(ptr noundef %9, ptr noundef @.str.23, ptr noundef @.str.24, ptr noundef @.str.25)
  %10 = load i32, ptr @proto_grpc, align 4
  %11 = call ptr @expert_register_protocol(i32 noundef %10)
  store ptr %11, ptr %2, align 8
  %12 = load ptr, ptr %2, align 8
  call void @expert_register_field_array(ptr noundef %12, ptr noundef @proto_register_grpc.ei, i32 noundef 2)
  %13 = load i32, ptr @proto_grpc, align 4
  %14 = call ptr @register_dissector_with_description(ptr noundef @.str.17, ptr noundef @.str.26, ptr noundef @dissect_grpc, i32 noundef %13)
  store ptr %14, ptr @grpc_handle, align 8
  %15 = load i32, ptr @proto_grpc, align 4
  %16 = call ptr @register_dissector_with_description(ptr noundef @.str.27, ptr noundef @.str.28, ptr noundef @dissect_grpc_web, i32 noundef %15)
  store ptr %16, ptr @grpc_web_handle, align 8
  %17 = load i32, ptr @proto_grpc, align 4
  %18 = call ptr @register_dissector_with_description(ptr noundef @.str.29, ptr noundef @.str.30, ptr noundef @dissect_grpc_web_text, i32 noundef %17)
  store ptr %18, ptr @grpc_web_text_handle, align 8
  %19 = load i32, ptr @proto_grpc, align 4
  %20 = call ptr @register_dissector_table(ptr noundef @.str.31, ptr noundef @.str.32, i32 noundef %19, i32 noundef 26, i32 noundef 0)
  store ptr %20, ptr @grpc_message_type_subdissector_table, align 8
  call void @llvm.lifetime.end.p0(i64 8, ptr %2) #8
  call void @llvm.lifetime.end.p0(i64 8, ptr %1) #8
  ret void
}