; Function Attrs: null_pointer_is_valid sspstrong uwtable
define hidden void @proto_register_grpc() local_unnamed_addr #0 {
  %1 = tail call i32 @proto_register_protocol(ptr noundef nonnull @.str.15, ptr noundef nonnull @.str.16, ptr noundef nonnull @.str.17)
  store i32 %1, ptr @proto_grpc, align 4
  tail call void @proto_register_field_array(i32 noundef %1, ptr noundef nonnull @proto_register_grpc.hf, i32 noundef 4)
  tail call void @proto_register_subtree_array(ptr noundef nonnull @proto_register_grpc.ett, i32 noundef 3)
  %2 = load i32, ptr @proto_grpc, align 4
  %3 = tail call ptr @prefs_register_protocol(i32 noundef %2, ptr noundef null)
  tail call void @prefs_register_bool_preference(ptr noundef %3, ptr noundef nonnull @.str.18, ptr noundef nonnull @.str.19, ptr noundef nonnull @.str.20, ptr noundef nonnull @grpc_detect_json_automatically)
  tail call void @prefs_register_bool_preference(ptr noundef %3, ptr noundef nonnull @.str.21, ptr noundef nonnull @.str.22, ptr noundef nonnull @.str.22, ptr noundef nonnull @grpc_embedded_under_http2)
  tail call void @prefs_register_static_text_preference(ptr noundef %3, ptr noundef nonnull @.str.23, ptr noundef nonnull @.str.24, ptr noundef nonnull @.str.25)
  %4 = load i32, ptr @proto_grpc, align 4
  %5 = tail call ptr @expert_register_protocol(i32 noundef %4)
  tail call void @expert_register_field_array(ptr noundef %5, ptr noundef nonnull @proto_register_grpc.ei, i32 noundef 2)
  %6 = load i32, ptr @proto_grpc, align 4
  %7 = tail call ptr @register_dissector_with_description(ptr noundef nonnull @.str.17, ptr noundef nonnull @.str.26, ptr noundef nonnull @dissect_grpc, i32 noundef %6)
  store ptr %7, ptr @grpc_handle, align 8
  %8 = load i32, ptr @proto_grpc, align 4
  %9 = tail call ptr @register_dissector_with_description(ptr noundef nonnull @.str.27, ptr noundef nonnull @.str.28, ptr noundef nonnull @dissect_grpc_web, i32 noundef %8)
  store ptr %9, ptr @grpc_web_handle, align 8
  %10 = load i32, ptr @proto_grpc, align 4
  %11 = tail call ptr @register_dissector_with_description(ptr noundef nonnull @.str.29, ptr noundef nonnull @.str.30, ptr noundef nonnull @dissect_grpc_web_text, i32 noundef %10)
  store ptr %11, ptr @grpc_web_text_handle, align 8
  %12 = load i32, ptr @proto_grpc, align 4
  %13 = tail call ptr @register_dissector_table(ptr noundef nonnull @.str.31, ptr noundef nonnull @.str.32, i32 noundef %12, i32 noundef 26, i32 noundef 0)
  store ptr %13, ptr @grpc_message_type_subdissector_table, align 8
  ret void
}